Certificate:
    Data:
        Version: 3 (0x2)
        Serial Number: 1 (0x1)
        Signature Algorithm: sha256WithRSAEncryption
        Issuer: CN=devcert
        Validity
            Not Before: May  6 06:17:12 2020 GMT
            Not After : Aug  9 06:17:12 2022 GMT
        Subject: CN=localhost
        Subject Public Key Info:
            Public Key Algorithm: rsaEncryption
                RSA Public-Key: (2048 bit)
                Modulus:
                    00:b6:cd:a7:ad:d0:59:87:12:0f:13:bc:1e:a1:55:
                    a7:59:6e:80:42:e2:2f:b3:2e:d5:55:6a:0c:94:89:
                    bd:4d:4b:49:5c:a5:71:d0:31:b2:56:d8:b6:f2:10:
                    19:71:7c:35:4c:02:da:1a:bc:d5:7b:75:9d:31:9a:
                    17:e4:95:bc:2c:9f:bf:f0:0b:01:46:66:30:68:9d:
                    0b:2f:d9:64:aa:62:c0:03:8c:95:e2:e8:1e:88:15:
                    19:a2:f7:87:cc:01:33:eb:f6:33:70:b8:f2:a0:1a:
                    c9:c7:81:38:74:49:4f:a1:b9:af:0b:66:9b:55:26:
                    c8:aa:fc:87:3c:48:7b:91:f7:40:2c:56:4f:0f:8d:
                    f4:12:40:c3:40:96:3f:e5:45:57:e8:a0:28:43:e6:
                    ee:aa:b3:6d:28:ef:53:c9:7f:84:32:41:2e:e3:6f:
                    13:38:e0:34:c9:08:fc:0d:32:d1:00:ec:9d:cf:6d:
                    be:72:00:37:0e:6a:00:0a:11:a3:3c:78:7d:c3:89:
                    57:69:8d:9c:27:f7:4c:09:fb:58:0e:b8:9d:28:c7:
                    2a:4a:df:d8:ce:5e:4d:48:a0:2a:db:fa:b8:3e:56:
                    d3:dc:ab:c5:b3:3e:ad:1a:23:4c:8d:54:2f:fb:34:
                    cd:61:67:f6:e3:51:d5:01:f8:83:31:5c:33:4c:a6:
                    9b:1f
                Exponent: 65537 (0x10001)
        X509v3 extensions:
            X509v3 Basic Constraints: critical
                CA:FALSE
            X509v3 Subject Key Identifier: 
                9B:BD:F9:65:DF:BC:ED:33:A2:F5:04:B4:1C:6B:B3:50:9B:3A:D2:B6
            X509v3 Authority Key Identifier: 
                keyid:F4:DB:9B:02:15:86:4A:C5:B1:F3:35:72:56:A1:D0:DB:58:14:D7:55
                DirName:/CN=devcert
                serial:35:1C:DA:5D:DC:F5:09:6E:47:C1:9F:06:D4:5D:34:DB:CA:15:B1:73

            X509v3 Key Usage: critical
                Digital Signature, Key Encipherment
            X509v3 Extended Key Usage: 
                TLS Web Server Authentication
            X509v3 Subject Alternative Name: 
                DNS:localhost, DNS:*.localhost
    Signature Algorithm: sha256WithRSAEncryption
         b3:95:61:52:b9:f3:75:c5:a6:77:02:7c:13:be:e1:80:d6:aa:
         30:79:e1:a0:86:3d:b3:7c:b4:56:74:eb:2b:5a:b4:9a:34:8d:
         3e:e1:d3:7d:14:d6:5f:18:a8:aa:73:82:cd:f1:f0:9d:04:bd:
         7a:a7:35:f3:4e:36:d9:06:a3:7c:71:b9:7f:f5:30:d3:64:48:
         24:2d:f7:78:85:92:f5:74:ac:02:4a:ac:9f:29:b9:ec:63:48:
         b9:0b:9d:35:0a:80:c4:90:02:be:6b:af:fb:59:f7:a3:2d:c4:
         c8:1c:a2:a2:14:5a:64:86:d8:c0:3d:90:52:cc:14:31:ad:71:
         10:0c:36:8f:96:cf:bd:e9:e6:1c:83:00:04:1f:a0:e2:9a:bb:
         f2:86:16:27:9c:ae:9b:3d:12:69:51:ed:71:84:3b:82:d3:18:
         09:e2:24:10:dc:ce:cb:d3:09:ce:29:7d:e8:1c:21:5d:8a:d5:
         44:bd:fd:90:8f:19:81:7c:55:dc:71:3d:c2:d6:5c:ba:12:fd:
         b1:eb:2a:c9:1a:2e:ff:c0:1d:2d:55:77:f4:88:04:10:f1:dc:
         e8:79:b7:34:47:52:6d:98:20:0f:ee:a8:d2:b2:96:38:33:94:
         5b:71:b3:c0:4d:f6:b3:ce:52:2c:f8:c0:ba:68:51:a8:c6:0d:
         67:51:66:40
-----BEGIN CERTIFICATE-----
MIIDaTCCAlGgAwIBAgIBATANBgkqhkiG9w0BAQsFADASMRAwDgYDVQQDDAdkZXZj
ZXJ0MB4XDTIwMDUwNjA2MTcxMloXDTIyMDgwOTA2MTcxMlowFDESMBAGA1UEAwwJ
bG9jYWxob3N0MIIBIjANBgkqhkiG9w0BAQEFAAOCAQ8AMIIBCgKCAQEAts2nrdBZ
hxIPE7weoVWnWW6AQuIvsy7VVWoMlIm9TUtJXKVx0DGyVti28hAZcXw1TALaGrzV
e3WdMZoX5JW8LJ+/8AsBRmYwaJ0LL9lkqmLAA4yV4ugeiBUZoveHzAEz6/YzcLjy
oBrJx4E4dElPobmvC2abVSbIqvyHPEh7kfdALFZPD430EkDDQJY/5UVX6KAoQ+bu
qrNtKO9TyX+EMkEu428TOOA0yQj8DTLRAOydz22+cgA3DmoAChGjPHh9w4lXaY2c
J/dMCftYDridKMcqSt/Yzl5NSKAq2/q4PlbT3KvFsz6tGiNMjVQv+zTNYWf241HV
AfiDMVwzTKabHwIDAQABo4HHMIHEMAwGA1UdEwEB/wQCMAAwHQYDVR0OBBYEFJu9
+WXfvO0zovUEtBxrs1CbOtK2ME0GA1UdIwRGMESAFPTbmwIVhkrFsfM1clah0NtY
FNdVoRakFDASMRAwDgYDVQQDDAdkZXZjZXJ0ghQ1HNpd3PUJbkfBnwbUXTTbyhWx
czAOBgNVHQ8BAf8EBAMCBaAwEwYDVR0lBAwwCgYIKwYBBQUHAwEwIQYDVR0RBBow
GIIJbG9jYWxob3N0ggsqLmxvY2FsaG9zdDANBgkqhkiG9w0BAQsFAAOCAQEAs5Vh
UrnzdcWmdwJ8E77hgNaqMHnhoIY9s3y0VnTrK1q0mjSNPuHTfRTWXxioqnOCzfHw
nQS9eqc180422QajfHG5f/Uw02RIJC33eIWS9XSsAkqsnym57GNIuQudNQqAxJAC
vmuv+1n3oy3EyByiohRaZIbYwD2QUswUMa1xEAw2j5bPvenmHIMABB+g4pq78oYW
J5yumz0SaVHtcYQ7gtMYCeIkENzOy9MJzil96BwhXYrVRL39kI8ZgXxV3HE9wtZc
uhL9sesqyRou/8AdLVV39IgEEPHc6Hm3NEdSbZggD+6o0rKWODOUW3GzwE32s85S
LPjAumhRqMYNZ1FmQA==
-----END CERTIFICATE-----
